; Function Attrs: mustprogress uwtable
define noundef nonnull align 8 dereferenceable(64) ptr @_ZN6icu_758ZoneMeta13getMetazoneIDERKNS_13UnicodeStringEdRS1_(ptr noundef nonnull align 8 dereferenceable(64) %tzid, double noundef %date, ptr noundef nonnull returned align 8 dereferenceable(64) %result) local_unnamed_addr #0 align 2 {
entry:
  %call = tail call noundef ptr @_ZN6icu_758ZoneMeta19getMetazoneMappingsERKNS_13UnicodeStringE(ptr noundef nonnull align 8 dereferenceable(64) %tzid)
  %cmp.not = icmp eq ptr %call, null
  br i1 %cmp.not, label %if.then9, label %for.cond.preheader

for.cond.preheader:                               ; preds = %entry
  %count.i = getelementptr inbounds i8, ptr %call, i64 8
  %0 = load i32, ptr %count.i, align 8
  %cmp210 = icmp sgt i32 %0, 0
  br i1 %cmp210, label %for.body, label %if.then9

for.body:                                         ; preds = %for.cond.preheader, %for.inc
  %i.011 = phi i32 [ %inc, %for.inc ], [ 0, %for.cond.preheader ]
  %call3 = tail call noundef ptr @_ZNK6icu_757UVector9elementAtEi(ptr noundef nonnull align 8 dereferenceable(40) %call, i32 noundef %i.011)
  %from = getelementptr inbounds i8, ptr %call3, i64 8
  %1 = load double, ptr %from, align 8
  %cmp4 = fcmp ugt double %1, %date
  br i1 %cmp4, label %for.inc, label %land.lhs.true

land.lhs.true:                                    ; preds = %for.body
  %to = getelementptr inbounds i8, ptr %call3, i64 16
  %2 = load double, ptr %to, align 8
  %cmp5 = fcmp ogt double %2, %date
  br i1 %cmp5, label %if.then6, label %for.inc

if.then6:                                         ; preds = %land.lhs.true
  %3 = load ptr, ptr %call3, align 8
  tail call void @_ZN6icu_7513UnicodeString7unBogusEv(ptr noundef nonnull align 8 dereferenceable(64) %result)
  %fUnion.i.i.i = getelementptr inbounds i8, ptr %result, i64 8
  %4 = load i16, ptr %fUnion.i.i.i, align 8
  %cmp.i.i.i = icmp slt i16 %4, 0
  %5 = ashr i16 %4, 5
  %shr.i.i.i = sext i16 %5 to i32
  %fLength.i.i = getelementptr inbounds i8, ptr %result, i64 12
  %6 = load i32, ptr %fLength.i.i, align 4
  %cond.i.i = select i1 %cmp.i.i.i, i32 %6, i32 %shr.i.i.i
  %call2.i = tail call noundef nonnull align 8 dereferenceable(64) ptr @_ZN6icu_7513UnicodeString9doReplaceEiiPKDsii(ptr noundef nonnull align 8 dereferenceable(64) %result, i32 noundef 0, i32 noundef %cond.i.i, ptr noundef %3, i32 noundef 0, i32 noundef -1)
  br label %if.end10

for.inc:                                          ; preds = %for.body, %land.lhs.true
  %inc = add nuw nsw i32 %i.011, 1
  %7 = load i32, ptr %count.i, align 8
  %cmp2 = icmp slt i32 %inc, %7
  br i1 %cmp2, label %for.body, label %if.then9, !llvm.loop !9

if.then9:                                         ; preds = %for.inc, %for.cond.preheader, %entry
  tail call void @_ZN6icu_7513UnicodeString10setToBogusEv(ptr noundef nonnull align 8 dereferenceable(64) %result)
  br label %if.end10

if.end10:                                         ; preds = %if.then6, %if.then9
  ret ptr %result
}